ccollections
OrderedDict
p1
((lp2
(lp3
I1
aS'$2a$12$bxyhwDcK5VzK24Dxz8sSMuL62mx5SscF4q/WD5PfVXdznPIPUl1Ea'
p4
aa(lp5
I2
aS'$2a$12$BmEINh2I9lPCAwqZcmkovu/YLQJ6nPHn3P0pJGlELXcNOfjsXj7e6'
p6
aa(lp7
I3
aS'$2a$12$7tROmhPwkSMyMMt1VvstwuqytytMF9zVm0Q7d/Xe6I6zeDi3HhJx2'
p8
aa(lp9
I4
aS'$2a$12$AEnYXw2KWVNDrqOuGnZ23eiBoX2XS.GQ7uT8ZyHEVPlYtibfrU/9y'
p10
aa(lp11
I5
aS'$2a$12$OJRHYiQMZwbzSAUjtBYmyupTari8mDBlcnwNVkTlhW1wmDHS/jbdy'
p12
aa(lp13
I6
aS'$2a$12$as7QpZRxMYOgmECO4xz8Eu/jFqoZzTWFkxvIB.C/Fpw7z1Zeicjbm'
p14
aa(lp15
I7
aS'$2a$12$w0HAECj3suuE9RIyhicfe.cd8KRHi4KXy11KuMbgeDU6F5Ab1Mwea'
p16
aa(lp17
I8
aS'$2a$12$MVvMHoQ.qYBTWzu2zrO4TO9THDXDfvwx2ADgDxqY1/Nj4YM.3Yr6O'
p18
aa(lp19
I9
aS'$2a$12$ddfFhtf4LesDZTSsHRE9T.m0sS/fy9vtvYCzsgzBYTIaklfhrtl/e'
p20
aa(lp21
I10
aS'$2a$12$PDfEXr1.hHp2hd7vmmqIKu7t44tx0WUrqllQwmJX0rz0r/BmC90xy'
p22
aa(lp23
I11
aS'$2a$12$Z6JUytFk5KzYbzWgGqasT.G0tfHlnYC7w0FVMYt66nYWCvJ8JJCe2'
p24
aa(lp25
I12
aS'$2a$12$t7COCGPgh.PtoGPKxhkeE.VcoWOml2jpIJsxzA0DnWn8bAIHulmgi'
p26
aa(lp27
I13
aS'$2a$12$JkSaLG9pCw3ARmRFrwXW6uCYYTrWIXtsT0wuFi2qVvUQxZdmpGp8G'
p28
aa(lp29
I14
aS'$2a$12$tXgq.E3vI4wg0qTcxDT3FuZH2eyZpqt80uMUDxmVCDeSNcHyr2R9y'
p30
aa(lp31
I15
aS'$2a$12$L9qSD2HKj0mb7QN3w9n.HeadJ44bkc8XoRGOrBIJDO9Ljc3XY1DJ2'
p32
aa(lp33
I16
aS'$2a$12$rDXlI9LPIUE68/o81XL.zO9YB9YfN2AUP0sf8jPwL3RHtZGEqb6aC'
p34
aa(lp35
I17
aS'$2a$12$zYRJoQLiBgijxcpFTKEV4eCp2t8qhpIO2WUvWGygWjnt1e7QflUte'
p36
aa(lp37
I18
aS'$2a$12$KT6xGE.Lh5BafXoZm77E4OZvogsstDkUduTBw45x.YtU7y3ceUkJG'
p38
aa(lp39
I19
aS'$2a$12$Wo9ZmpHYr6wBMKSyqfrpf.jw0O.OCfLpF7sVlWf918WUXoS.IosCa'
p40
aa(lp41
I20
aS'$2a$12$8xpPk.b9QgLeoh5d94pBieTrKdQrLtQeJlTGhgCHzN4kH9.r3A4GS'
p42
aa(lp43
I21
aS'$2a$12$bLj8NyYoQf5rTMaOkbxYlubpmynY5c761zEfSdWfxxLdOmrWOvK..'
p44
aa(lp45
I22
aS'$2a$12$GaEXrsr.e1zkr969Hv3aduawgCU0kwdW5A9ZzdzPXst73sb1BF5kC'
p46
aa(lp47
I23
aS'$2a$12$HEMj3IFVjP4eozvu0I5pb.2ldUHLOC5V1D7Ar75RO1P5GAJxx7omW'
p48
aa(lp49
I24
aS'$2a$12$WNCGVRP.cZ4ClI4poLq2GOFvqAGAG.K6nn/jYw/Rml699mVBfazie'
p50
aa(lp51
I25
aS'$2a$12$1vdS1f5ZWSNwOr7WD1QWMOUhuyzZQUKtUKgzqpYR508esy2KF8B8S'
p52
aa(lp53
I26
aS'$2a$12$hSQ3Rw.EG3kryc8noHNxdeWC4iqfsGq.1gnpD5p/u8RcBbo.LX0wC'
p54
aa(lp55
I27
aS'$2a$12$SRo3Vd7RDHhiUAl.wvzAWOBKJvoH7gmMl2a1xq1szw9UOK67kKg.e'
p56
aa(lp57
I28
aS'$2a$12$GXc/IBvAwVP4z/t3JtHvZuSuKQ0uM5AdHqtHClvU74rjnN1GP3fWS'
p58
aa(lp59
I29
aS'$2a$12$3T7YqDErbgU159nRkCN9y.KMuUFsgwZ.x3lJFqRSfvIb1vteGlzlG'
p60
aa(lp61
I30
aS'$2a$12$Lut3RdxBO/gjVXDiPsbjgut93PcylgIrkfovYn3B7Z7BYgVYe1.SC'
p62
aa(lp63
I31
aS'$2a$12$Z3AUJ1brLOH/zuI6WdWK3eO3qqAP.NbYwOCwOCs5PAQfB5Nx6Zwb.'
p64
aa(lp65
I32
aS'$2a$12$9qkFEiaLZG1X13blPovPy.cdmtvfLrPE0RWOsyLkITEzuCCgjnxKC'
p66
aa(lp67
I33
aS'$2a$12$bFEbLQnL6T.1shU0c2Yr2enWEjSoy1qTKz1F6zzuPp/5G9SdjTaFK'
p68
aa(lp69
I34
aS'$2a$12$dbxfBeSViYKUdijAR9r14uqiinEpi2bIoP4JYRVmdFMFDRDXgtNTu'
p70
aa(lp71
I35
aS'$2a$12$fr7AJ/GoGztZySoNdsJEjud9gM1/nMjo1F3QbBo.0ihz5C9nUb2lS'
p72
aa(lp73
I36
aS'$2a$12$C71LlmRxsF8XZEURsxDon.1YBeAVHXIoKV9hSvO6sE4stkg4HAnXq'
p74
aa(lp75
I37
aS'$2a$12$03VxCPXXveQs6z5p5CK6fu7N3uGBvSneaxGBmho/4u2eUrHcvCMSG'
p76
aa(lp77
I38
aS'$2a$12$ZbsNuf363t0IjxQ3N2nPnOEogMQVH8cBab8ag3jpVjJwjzdvBUQ/2'
p78
aa(lp79
I40
aS'$2a$12$N4x2X.DwSFbqbHR8edQeKuaz0aAsyQoM4K9xfXNitGu.8V5JDT7TK'
p80
aa(lp81
I41
aS'$2a$12$oA5DBM520AkxRSt3/62fDubiE15TFmtoh84np/gSTHjs1u2TkCX/G'
p82
aa(lp83
I42
aS'$2a$12$Lbbx6.1o5No71igSBNPuFOSm1tnnuDeianH5QCtxM9fDRrC/CxtIm'
p84
aa(lp85
I43
aS'$2a$12$hz1PhLsZhrO1FpWrbUIA9.0/OMjv/ry4EAhS1nc8FEGCzzPt6xdqq'
p86
aa(lp87
I44
aS'$2a$12$S0h.w0RXtJEg58DEOrpBn..HBjTq9ZZNTJCZy3p1PSZtCbdfrroQy'
p88
aa(lp89
I45
aS'$2a$12$K0EPJF6Ns2jYFX0lyg9Lseu.4KswXNVbY0IOuDsilKeCwwL6XtLJ2'
p90
aa(lp91
I46
aS'$2a$12$9cJPIiOIZ1NG.odFCj71buZUn0am7NVgrmFqkRrtmPqOewZcKZchS'
p92
aa(lp93
I47
aS'$2a$12$MZpPKnsCJKRx66Z99HHtCOBjH7rNwuyQy92QsFAoFRiNGfaJkg7te'
p94
aa(lp95
I48
aS'$2a$12$/sfzkp/M07jvFeaXO029m.9Q0TkLo.xjPpMc/.QQaKPZ6tQZE8e.u'
p96
aa(lp97
I49
aS'$2a$12$RU.oWniVPJfc4jMHi/jMHuTzHdBxqOVyLiWxnkYJFjessED/jo8a6'
p98
aa(lp99
I50
aS'$2a$12$SUXNetUb8nAIEi4yJQ/./O6z4PYOKB4IbvG8GU6vz1XspsGN0t1eC'
p100
aa(lp101
I52
aS'$2a$12$JpD.D6IriQ43HpweqwJrF.gewi.wtE/iNBuTQOSvJL619A6DoCBd6'
p102
aa(lp103
I53
aS'$2a$12$k0Qo9JPTKGmFudpuU4RaueMGBa8IdYIxAjj6dXJdeP7HfUjOWpl/G'
p104
aa(lp105
I54
aS'$2a$12$eQg2.73Um0iNbuL6lfiNR.A4G9ZRVNY.kGR90G6GZV7So7VI7482.'
p106
aa(lp107
I55
aS'$2a$12$KMVNxhkicCGThgyxkzOR8.VA7l8wkYvN9A3qh7rKgbRmgvnwWnTlu'
p108
aa(lp109
I56
aS'$2a$12$TavZMrMjXFA8lx5seIvNUumWyRB0aIgCZkjchhH0avazjhhaMK94i'
p110
aa(lp111
I57
aS'$2a$12$ICFfa0OSymOJdtaHhsuitOPnVKlXpkUE/XSBra/VT3WUvJxdPHP3W'
p112
aatRp113
.